(dp1
S'OriginalConfig'
p2
ccopy_reg
_reconstructor
p3
(cWMCore.Configuration
Configuration
p4
c__builtin__
object
p5
NtRp6
(dp7
S'Site'
p8
g3
(cWMCore.Configuration
ConfigSection
p9
g5
NtRp10
(dp11
S'_internal_skipChecks'
p12
I00
sS'_internal_documentation'
p13
S''
sS'_internal_settings'
p14
c__builtin__
set
p15
((lp16
S'storageSite'
p17
atRp18
sS'_internal_name'
p19
g8
sS'_internal_docstrings'
p20
(dp21
sS'_internal_children'
p22
g15
((ltRp23
sg17
S'T2_IN_TIFR'
p24
sS'_internal_parent_ref'
p25
NsbsS'_internal_sections'
p26
(lp27
S'General'
p28
aS'JobType'
p29
aS'Data'
p30
ag8
aS'User'
p31
aS'Debug'
p32
asg28
g3
(g9
g5
NtRp33
(dp34
S'workArea'
p35
S'CrabMuData_20170717'
p36
sg12
I00
sg13
S''
sg14
g15
((lp37
g35
aS'transferOutputs'
p38
aS'transferLogs'
p39
aS'requestName'
p40
atRp41
sg19
g28
sg20
(dp42
sg38
I01
sg22
g15
((ltRp43
sg40
S'MuRunGv1_MuData_20170717'
p44
sg25
Nsg39
I00
sbsS'_internal_webapps'
p45
(lp46
sg31
g3
(g9
g5
NtRp47
(dp48
g12
I00
sg13
S''
sg14
g15
((ltRp49
sg19
g31
sg20
(dp50
sg22
g15
((ltRp51
sg25
NsbsS'_internal_components'
p52
(lp53
sg32
g3
(g9
g5
NtRp54
(dp55
g12
I00
sg13
S''
sg14
g15
((ltRp56
sg19
g32
sg20
(dp57
sg22
g15
((ltRp58
sg25
Nsbsg30
g3
(g9
g5
NtRp59
(dp60
S'inputDataset'
p61
S'/SingleMuon/Run2016G-03Feb2017-v1/MINIAOD'
p62
sS'allowNonValidInputDataset'
p63
I01
sg12
I00
sS'splitting'
p64
S'FileBased'
p65
sS'unitsPerJob'
p66
I5
sg13
S''
sg14
g15
((lp67
g61
ag63
ag66
aS'ignoreLocality'
p68
aS'inputDBS'
p69
ag64
aS'outputDatasetTag'
p70
aS'outLFNDirBase'
p71
aS'lumiMask'
p72
atRp73
sg68
I01
sg19
g30
sg69
S'global'
p74
sg20
(dp75
sg70
g44
sg22
g15
((ltRp76
sg71
S'/store/user/rverma/ntuple_MuData_kfitL_20170717/MuData_20170717/MuRunGv1_MuData_20170717'
p77
sg25
Nsg72
S'https://cms-service-dqm.web.cern.ch/cms-service-dqm/CAF/certification/Collisions16/13TeV/Final/Cert_271036-284044_13TeV_PromptReco_Collisions16_JSON.txt'
p78
sbsg29
g3
(g9
g5
NtRp79
(dp80
g12
I00
sg13
S''
sg14
g15
((lp81
S'psetName'
p82
aS'pluginName'
p83
aS'inputFiles'
p84
aS'allowUndistributedCMSSW'
p85
aS'maxMemoryMB'
p86
atRp87
sg19
g29
sg20
(dp88
sg83
S'Analysis'
p89
sg22
g15
((ltRp90
sg85
I01
sg82
S'config/MuRunGv1_MuData_20170717_cfg.py'
p91
sg25
Nsg84
(lp92
S'../../MiniTree/Selection/test/Spring16_25nsV6_MC_PtResolution_AK4PF.txt'
p93
aS'../../MiniTree/Selection/test/Spring16_25nsV6_MC_SF_AK4PF.txt'
p94
asg86
I4000
sbsbsS'voGroup'
p95
S''
sS'Server'
p96
S'cmsweb.cern.ch'
p97
sS'instance'
p98
S'prod'
p99
sS'RequestName'
p100
V170717_154555:rverma_crab_MuRunGv1_MuData_20170717
p101
sS'voRole'
p102
S'NULL'
p103
sS'Port'
p104
S''
s.